target datalayout = "e-m:e-p270:32:32-p271:32:32-p272:64:64-i64:64-i128:128-f80:128-n8:16:32:64-S128"
target triple = "x86_64-pc-linux-gnu"

%"struct.std::_Vector_base.104" = type { %"struct.std::_Vector_base<TIntermNode *, glslang::pool_allocator<TIntermNode *>>::_Vector_impl" }
%"struct.std::_Vector_base<TIntermNode *, glslang::pool_allocator<TIntermNode *>>::_Vector_impl" = type { %"class.glslang::pool_allocator", %"struct.std::_Vector_base<TIntermNode *, glslang::pool_allocator<TIntermNode *>>::_Vector_impl_data" }
%"class.glslang::pool_allocator" = type { ptr }
%"struct.std::_Vector_base<TIntermNode *, glslang::pool_allocator<TIntermNode *>>::_Vector_impl_data" = type { ptr, ptr, ptr }
%"class.glslang::TQualifier" = type <{ ptr, i64, i8, [3 x i8], i32, i32, i64, i64, i8, i8, i8, i8, i8, [3 x i8], i32, i8, i8, i8, i8, i32, ptr, i8, i8, [6 x i8] }>
%"struct.glslang::TSourceLoc" = type { ptr, i32, i32, i32 }
%"class.glslang::TIntermTyped" = type { %class.TIntermNode, %"class.glslang::TType" }
%class.TIntermNode = type { ptr, %"struct.glslang::TSourceLoc" }
%"class.glslang::TType" = type { ptr, i32, [4 x i8], %"class.glslang::TQualifier", ptr, %union.anon.418, ptr, ptr, %"struct.glslang::TSampler", ptr, ptr }
%union.anon.418 = type { ptr }
%"struct.glslang::TSampler" = type { i32 }
%"class.glslang::TIntermOperator" = type { %"class.glslang::TIntermTyped", i32, i32 }

; Function Attrs: mustprogress nounwind uwtable
define linkonce_odr noundef i32 @_ZNK7glslang15TIntermOperator5getOpEv(ptr noundef nonnull align 8 dereferenceable(192) %0) #4 comdat align 2 {
  %2 = alloca ptr, align 8
  store ptr %0, ptr %2, align 8
  %3 = load ptr, ptr %2, align 8
  %4 = getelementptr inbounds %"class.glslang::TIntermOperator", ptr %3, i32 0, i32 1
  %5 = load i32, ptr %4, align 8
  ret i32 %5
}

; Function Attrs: mustprogress nounwind uwtable
define linkonce_odr noundef nonnull align 8 dereferenceable(8) ptr @_ZNKSt6vectorIP11TIntermNodeN7glslang14pool_allocatorIS1_EEEixEm(ptr noundef nonnull align 8 dereferenceable(32) %0, i64 noundef %1) #4 comdat align 2 {
  %3 = alloca ptr, align 8
  %4 = alloca i64, align 8
  store ptr %0, ptr %3, align 8
  store i64 %1, ptr %4, align 8
  %5 = load ptr, ptr %3, align 8
  %6 = getelementptr inbounds %"struct.std::_Vector_base.104", ptr %5, i32 0, i32 0
  %7 = getelementptr inbounds i8, ptr %6, i64 8
  %8 = getelementptr inbounds %"struct.std::_Vector_base<TIntermNode *, glslang::pool_allocator<TIntermNode *>>::_Vector_impl_data", ptr %7, i32 0, i32 0
  %9 = load ptr, ptr %8, align 8
  %10 = load i64, ptr %4, align 8
  %11 = getelementptr inbounds ptr, ptr %9, i64 %10
  ret ptr %11
}

; Function Attrs: mustprogress nounwind uwtable
define linkonce_odr noundef i64 @_ZNKSt6vectorIP11TIntermNodeN7glslang14pool_allocatorIS1_EEE4sizeEv(ptr noundef nonnull align 8 dereferenceable(32) %0) #4 comdat align 2 {
  %2 = alloca ptr, align 8
  store ptr %0, ptr %2, align 8
  %3 = load ptr, ptr %2, align 8
  %4 = getelementptr inbounds %"struct.std::_Vector_base.104", ptr %3, i32 0, i32 0
  %5 = getelementptr inbounds i8, ptr %4, i64 8
  %6 = getelementptr inbounds %"struct.std::_Vector_base<TIntermNode *, glslang::pool_allocator<TIntermNode *>>::_Vector_impl_data", ptr %5, i32 0, i32 1
  %7 = load ptr, ptr %6, align 8
  %8 = getelementptr inbounds %"struct.std::_Vector_base.104", ptr %3, i32 0, i32 0
  %9 = getelementptr inbounds i8, ptr %8, i64 8
  %10 = getelementptr inbounds %"struct.std::_Vector_base<TIntermNode *, glslang::pool_allocator<TIntermNode *>>::_Vector_impl_data", ptr %9, i32 0, i32 0
  %11 = load ptr, ptr %10, align 8
  %12 = ptrtoint ptr %7 to i64
  %13 = ptrtoint ptr %11 to i64
  %14 = sub i64 %12, %13
  %15 = sdiv exact i64 %14, 8
  ret i64 %15
}

; Function Attrs: mustprogress nounwind uwtable
define internal void @_ZN12_GLOBAL__N_122TGlslangToSpvTraverser14visitFunctionsERKN7glslang7TVectorIP11TIntermNodeEE(ptr noundef nonnull align 8 dereferenceable(3528) %0, ptr noundef nonnull align 8 dereferenceable(32) %1) #4 align 2 {
  %3 = alloca ptr, align 8
  %4 = alloca ptr, align 8
  %5 = alloca i32, align 4
  %6 = alloca ptr, align 8
  store ptr %0, ptr %3, align 8
  store ptr %1, ptr %4, align 8
  %7 = load ptr, ptr %3, align 8
  store i32 0, ptr %5, align 4
  br label %8

8:                                                ; preds = %40, %2
  %9 = load i32, ptr %5, align 4
  %10 = load ptr, ptr %4, align 8
  %11 = call noundef i64 @_ZNKSt6vectorIP11TIntermNodeN7glslang14pool_allocatorIS1_EEE4sizeEv(ptr noundef nonnull align 8 dereferenceable(32) %10) #3
  %12 = trunc i64 %11 to i32
  %13 = icmp slt i32 %9, %12
  br i1 %13, label %14, label %43

14:                                               ; preds = %8
  %15 = load ptr, ptr %4, align 8
  %16 = load i32, ptr %5, align 4
  %17 = sext i32 %16 to i64
  %18 = call noundef nonnull align 8 dereferenceable(8) ptr @_ZNKSt6vectorIP11TIntermNodeN7glslang14pool_allocatorIS1_EEEixEm(ptr noundef nonnull align 8 dereferenceable(32) %15, i64 noundef %17) #3
  %19 = load ptr, ptr %18, align 8
  %20 = load ptr, ptr %19, align 8
  %21 = getelementptr inbounds ptr, ptr %20, i64 6
  %22 = load ptr, ptr %21, align 8
  %23 = call noundef ptr %22(ptr noundef nonnull align 8 dereferenceable(32) %19)
  store ptr %23, ptr %6, align 8
  %24 = load ptr, ptr %6, align 8
  %25 = icmp ne ptr %24, null
  br i1 %25, label %26, label %39

26:                                               ; preds = %14
  %27 = load ptr, ptr %6, align 8
  %28 = call noundef i32 @_ZNK7glslang15TIntermOperator5getOpEv(ptr noundef nonnull align 8 dereferenceable(192) %27)
  %29 = icmp eq i32 %28, 5
  br i1 %29, label %34, label %30

30:                                               ; preds = %26
  %31 = load ptr, ptr %6, align 8
  %32 = call noundef i32 @_ZNK7glslang15TIntermOperator5getOpEv(ptr noundef nonnull align 8 dereferenceable(192) %31)
  %33 = icmp eq i32 %32, 3
  br i1 %33, label %34, label %39

34:                                               ; preds = %30, %26
  %35 = load ptr, ptr %6, align 8
  %36 = load ptr, ptr %35, align 8
  %37 = getelementptr inbounds ptr, ptr %36, i64 2
  %38 = load ptr, ptr %37, align 8
  call void %38(ptr noundef nonnull align 8 dereferenceable(364) %35, ptr noundef %7)
  br label %39

39:                                               ; preds = %34, %30, %14
  br label %40

40:                                               ; preds = %39
  %41 = load i32, ptr %5, align 4
  %42 = add nsw i32 %41, 1
  store i32 %42, ptr %5, align 4
  br label %8, !llvm.loop !126

43:                                               ; preds = %8
  ret void
}