; Function Attrs: mustprogress nounwind uwtable
define internal fastcc void @_ZN12_GLOBAL__N_122TGlslangToSpvTraverser14visitFunctionsERKN7glslang7TVectorIP11TIntermNodeEE(ptr noundef nonnull align 8 dereferenceable(3528) %0, ptr noundef nonnull readonly align 8 captures(none) dereferenceable(32) %1) unnamed_addr #3 align 2 {
  %3 = getelementptr inbounds nuw i8, ptr %1, i64 8
  %4 = getelementptr inbounds nuw i8, ptr %1, i64 16
  %5 = load ptr, ptr %4, align 8
  %6 = load ptr, ptr %3, align 8
  %7 = ptrtoint ptr %5 to i64
  %8 = ptrtoint ptr %6 to i64
  %9 = sub i64 %7, %8
  %10 = lshr exact i64 %9, 3
  %11 = trunc i64 %10 to i32
  %12 = icmp sgt i32 %11, 0
  br i1 %12, label %.lr.ph, label %._crit_edge

.lr.ph:                                           ; preds = %2, %27
  %indvars.iv = phi i64 [ %indvars.iv.next, %27 ], [ 0, %2 ]
  %13 = phi ptr [ %29, %27 ], [ %6, %2 ]
  %14 = getelementptr inbounds nuw ptr, ptr %13, i64 %indvars.iv
  %15 = load ptr, ptr %14, align 8
  %16 = load ptr, ptr %15, align 8
  %17 = getelementptr inbounds nuw i8, ptr %16, i64 48
  %18 = load ptr, ptr %17, align 8
  %19 = tail call noundef ptr %18(ptr noundef nonnull align 8 dereferenceable(32) %15) #20
  %.not = icmp eq ptr %19, null
  br i1 %.not, label %27, label %20

20:                                               ; preds = %.lr.ph
  %21 = getelementptr inbounds nuw i8, ptr %19, i64 184
  %22 = load i32, ptr %21, align 8
  switch i32 %22, label %27 [
    i32 5, label %23
    i32 3, label %23
  ]

23:                                               ; preds = %20, %20
  %24 = load ptr, ptr %19, align 8
  %25 = getelementptr inbounds nuw i8, ptr %24, i64 16
  %26 = load ptr, ptr %25, align 8
  tail call void %26(ptr noundef nonnull align 8 dereferenceable(364) %19, ptr noundef nonnull %0) #20
  br label %27

27:                                               ; preds = %20, %.lr.ph, %23
  %indvars.iv.next = add nuw nsw i64 %indvars.iv, 1
  %28 = load ptr, ptr %4, align 8
  %29 = load ptr, ptr %3, align 8
  %30 = ptrtoint ptr %28 to i64
  %31 = ptrtoint ptr %29 to i64
  %32 = sub i64 %30, %31
  %sext = shl i64 %32, 29
  %33 = ashr i64 %sext, 32
  %34 = icmp slt i64 %indvars.iv.next, %33
  br i1 %34, label %.lr.ph, label %._crit_edge, !llvm.loop !365

._crit_edge:                                      ; preds = %27, %2
  ret void
}